target datalayout = "e-m:e-p270:32:32-p271:32:32-p272:64:64-i64:64-i128:128-f80:128-n8:16:32:64-S128"
target triple = "x86_64-pc-linux-gnu"

%struct.FASTCOVER_accel_t = type { i32, i32 }
%struct.ZDICT_params_t = type { i32, i32, i32 }
%struct.FASTCOVER_ctx_t = type { ptr, ptr, ptr, i64, i64, i64, i64, ptr, i32, i32, %struct.FASTCOVER_accel_t }
%struct.ZDICT_cover_params_t = type { i32, i32, i32, i32, double, i32, i32, %struct.ZDICT_params_t }
%struct.FASTCOVER_tryParameters_data_s = type { ptr, ptr, i64, %struct.ZDICT_cover_params_t }
%struct.COVER_dictSelection = type { ptr, i64, i64 }

@g_displayLevel = internal global i32 0, align 4
@stderr = external global ptr, align 8
@.str.25 = private unnamed_addr constant [43 x i8] c"Failed to allocate buffers: out of memory\0A\00", align 1
@.str.26 = private unnamed_addr constant [29 x i8] c"Failed to select dictionary\0A\00", align 1

; Function Attrs: nounwind uwtable
define internal void @FASTCOVER_tryParameters(ptr noundef %0) #0 {
  %2 = alloca ptr, align 8
  %3 = alloca ptr, align 8
  %4 = alloca ptr, align 8
  %5 = alloca %struct.ZDICT_cover_params_t, align 8
  %6 = alloca i64, align 8
  %7 = alloca i64, align 8
  %8 = alloca ptr, align 8
  %9 = alloca ptr, align 8
  %10 = alloca %struct.COVER_dictSelection, align 8
  %11 = alloca ptr, align 8
  %12 = alloca i64, align 8
  %13 = alloca i32, align 4
  %14 = alloca %struct.COVER_dictSelection, align 8
  %15 = alloca i32, align 4
  store ptr %0, ptr %2, align 8, !tbaa !4
  call void @llvm.lifetime.start.p0(i64 8, ptr %3) #10
  %16 = load ptr, ptr %2, align 8, !tbaa !4
  store ptr %16, ptr %3, align 8, !tbaa !67
  call void @llvm.lifetime.start.p0(i64 8, ptr %4) #10
  %17 = load ptr, ptr %3, align 8, !tbaa !67
  %18 = getelementptr inbounds nuw %struct.FASTCOVER_tryParameters_data_s, ptr %17, i32 0, i32 0
  %19 = load ptr, ptr %18, align 8, !tbaa !69
  store ptr %19, ptr %4, align 8, !tbaa !4
  call void @llvm.lifetime.start.p0(i64 48, ptr %5) #10
  %20 = load ptr, ptr %3, align 8, !tbaa !67
  %21 = getelementptr inbounds nuw %struct.FASTCOVER_tryParameters_data_s, ptr %20, i32 0, i32 3
  call void @llvm.memcpy.p0.p0.i64(ptr align 8 %5, ptr align 8 %21, i64 48, i1 false), !tbaa.struct !74
  call void @llvm.lifetime.start.p0(i64 8, ptr %6) #10
  %22 = load ptr, ptr %3, align 8, !tbaa !67
  %23 = getelementptr inbounds nuw %struct.FASTCOVER_tryParameters_data_s, ptr %22, i32 0, i32 2
  %24 = load i64, ptr %23, align 8, !tbaa !73
  store i64 %24, ptr %6, align 8, !tbaa !8
  call void @llvm.lifetime.start.p0(i64 8, ptr %7) #10
  store i64 -1, ptr %7, align 8, !tbaa !8
  call void @llvm.lifetime.start.p0(i64 8, ptr %8) #10
  %25 = load ptr, ptr %4, align 8, !tbaa !4
  %26 = getelementptr inbounds nuw %struct.FASTCOVER_ctx_t, ptr %25, i32 0, i32 9
  %27 = load i32, ptr %26, align 4, !tbaa !54
  %28 = zext i32 %27 to i64
  %29 = shl i64 1, %28
  %30 = call noalias ptr @calloc(i64 noundef %29, i64 noundef 2) #11
  store ptr %30, ptr %8, align 8, !tbaa !32
  call void @llvm.lifetime.start.p0(i64 8, ptr %9) #10
  %31 = load i64, ptr %6, align 8, !tbaa !8
  %32 = call noalias ptr @malloc(i64 noundef %31) #12
  store ptr %32, ptr %9, align 8, !tbaa !14
  call void @llvm.lifetime.start.p0(i64 24, ptr %10) #10
  call void @COVER_dictSelectionError(ptr dead_on_unwind writable sret(%struct.COVER_dictSelection) align 8 %10, i64 noundef -1)
  call void @llvm.lifetime.start.p0(i64 8, ptr %11) #10
  %33 = load ptr, ptr %4, align 8, !tbaa !4
  %34 = getelementptr inbounds nuw %struct.FASTCOVER_ctx_t, ptr %33, i32 0, i32 9
  %35 = load i32, ptr %34, align 4, !tbaa !54
  %36 = zext i32 %35 to i64
  %37 = shl i64 1, %36
  %38 = mul i64 %37, 4
  %39 = call noalias ptr @malloc(i64 noundef %38) #12
  store ptr %39, ptr %11, align 8, !tbaa !58
  %40 = load ptr, ptr %8, align 8, !tbaa !32
  %41 = icmp ne ptr %40, null
  br i1 %41, label %42, label %48

42:                                               ; preds = %1
  %43 = load ptr, ptr %9, align 8, !tbaa !14
  %44 = icmp ne ptr %43, null
  br i1 %44, label %45, label %48

45:                                               ; preds = %42
  %46 = load ptr, ptr %11, align 8, !tbaa !58
  %47 = icmp ne ptr %46, null
  br i1 %47, label %57, label %48

48:                                               ; preds = %45, %42, %1
  %49 = load i32, ptr @g_displayLevel, align 4, !tbaa !12
  %50 = icmp sge i32 %49, 1
  br i1 %50, label %51, label %56

51:                                               ; preds = %48
  %52 = load ptr, ptr @stderr, align 8, !tbaa !23
  %53 = call i32 (ptr, ptr, ...) @fprintf(ptr noundef %52, ptr noundef @.str.25) #10
  %54 = load ptr, ptr @stderr, align 8, !tbaa !23
  %55 = call i32 @fflush(ptr noundef %54)
  br label %56

56:                                               ; preds = %51, %48
  br label %124

57:                                               ; preds = %45
  %58 = load ptr, ptr %11, align 8, !tbaa !58
  %59 = load ptr, ptr %4, align 8, !tbaa !4
  %60 = getelementptr inbounds nuw %struct.FASTCOVER_ctx_t, ptr %59, i32 0, i32 7
  %61 = load ptr, ptr %60, align 8, !tbaa !34
  %62 = load ptr, ptr %4, align 8, !tbaa !4
  %63 = getelementptr inbounds nuw %struct.FASTCOVER_ctx_t, ptr %62, i32 0, i32 9
  %64 = load i32, ptr %63, align 4, !tbaa !54
  %65 = zext i32 %64 to i64
  %66 = shl i64 1, %65
  %67 = mul i64 %66, 4
  call void @llvm.memcpy.p0.p0.i64(ptr align 4 %58, ptr align 4 %61, i64 %67, i1 false)
  call void @llvm.lifetime.start.p0(i64 8, ptr %12) #10
  %68 = load ptr, ptr %4, align 8, !tbaa !4
  %69 = load ptr, ptr %11, align 8, !tbaa !58
  %70 = load ptr, ptr %9, align 8, !tbaa !14
  %71 = load i64, ptr %6, align 8, !tbaa !8
  %72 = load ptr, ptr %8, align 8, !tbaa !32
  %73 = call i64 @FASTCOVER_buildDictionary(ptr noundef %68, ptr noundef %69, ptr noundef %70, i64 noundef %71, ptr noundef byval(%struct.ZDICT_cover_params_t) align 8 %5, ptr noundef %72)
  store i64 %73, ptr %12, align 8, !tbaa !8
  call void @llvm.lifetime.start.p0(i64 4, ptr %13) #10
  %74 = load ptr, ptr %4, align 8, !tbaa !4
  %75 = getelementptr inbounds nuw %struct.FASTCOVER_ctx_t, ptr %74, i32 0, i32 4
  %76 = load i64, ptr %75, align 8, !tbaa !35
  %77 = load ptr, ptr %4, align 8, !tbaa !4
  %78 = getelementptr inbounds nuw %struct.FASTCOVER_ctx_t, ptr %77, i32 0, i32 10
  %79 = getelementptr inbounds nuw %struct.FASTCOVER_accel_t, ptr %78, i32 0, i32 0
  %80 = load i32, ptr %79, align 8, !tbaa !36
  %81 = zext i32 %80 to i64
  %82 = mul i64 %76, %81
  %83 = udiv i64 %82, 100
  %84 = trunc i64 %83 to i32
  store i32 %84, ptr %13, align 4, !tbaa !12
  call void @llvm.lifetime.start.p0(i64 24, ptr %14) #10
  %85 = load ptr, ptr %9, align 8, !tbaa !14
  %86 = load i64, ptr %12, align 8, !tbaa !8
  %87 = getelementptr inbounds nuw i8, ptr %85, i64 %86
  %88 = load i64, ptr %6, align 8, !tbaa !8
  %89 = load i64, ptr %6, align 8, !tbaa !8
  %90 = load i64, ptr %12, align 8, !tbaa !8
  %91 = sub i64 %89, %90
  %92 = load ptr, ptr %4, align 8, !tbaa !4
  %93 = getelementptr inbounds nuw %struct.FASTCOVER_ctx_t, ptr %92, i32 0, i32 0
  %94 = load ptr, ptr %93, align 8, !tbaa !49
  %95 = load ptr, ptr %4, align 8, !tbaa !4
  %96 = getelementptr inbounds nuw %struct.FASTCOVER_ctx_t, ptr %95, i32 0, i32 2
  %97 = load ptr, ptr %96, align 8, !tbaa !50
  %98 = load i32, ptr %13, align 4, !tbaa !12
  %99 = load ptr, ptr %4, align 8, !tbaa !4
  %100 = getelementptr inbounds nuw %struct.FASTCOVER_ctx_t, ptr %99, i32 0, i32 4
  %101 = load i64, ptr %100, align 8, !tbaa !35
  %102 = load ptr, ptr %4, align 8, !tbaa !4
  %103 = getelementptr inbounds nuw %struct.FASTCOVER_ctx_t, ptr %102, i32 0, i32 3
  %104 = load i64, ptr %103, align 8, !tbaa !51
  %105 = load ptr, ptr %4, align 8, !tbaa !4
  %106 = getelementptr inbounds nuw %struct.FASTCOVER_ctx_t, ptr %105, i32 0, i32 1
  %107 = load ptr, ptr %106, align 8, !tbaa !55
  %108 = load i64, ptr %7, align 8, !tbaa !8
  call void @COVER_selectDict(ptr dead_on_unwind writable sret(%struct.COVER_dictSelection) align 8 %14, ptr noundef %87, i64 noundef %88, i64 noundef %91, ptr noundef %94, ptr noundef %97, i32 noundef %98, i64 noundef %101, i64 noundef %104, ptr noundef byval(%struct.ZDICT_cover_params_t) align 8 %5, ptr noundef %107, i64 noundef %108)
  call void @llvm.memcpy.p0.p0.i64(ptr align 8 %10, ptr align 8 %14, i64 24, i1 false), !tbaa.struct !87
  call void @llvm.lifetime.end.p0(i64 24, ptr %14) #10
  %109 = call i32 @COVER_dictSelectionIsError(ptr noundef byval(%struct.COVER_dictSelection) align 8 %10)
  %110 = icmp ne i32 %109, 0
  br i1 %110, label %111, label %120

111:                                              ; preds = %57
  %112 = load i32, ptr @g_displayLevel, align 4, !tbaa !12
  %113 = icmp sge i32 %112, 1
  br i1 %113, label %114, label %119

114:                                              ; preds = %111
  %115 = load ptr, ptr @stderr, align 8, !tbaa !23
  %116 = call i32 (ptr, ptr, ...) @fprintf(ptr noundef %115, ptr noundef @.str.26) #10
  %117 = load ptr, ptr @stderr, align 8, !tbaa !23
  %118 = call i32 @fflush(ptr noundef %117)
  br label %119

119:                                              ; preds = %114, %111
  store i32 2, ptr %15, align 4
  br label %121

120:                                              ; preds = %57
  store i32 0, ptr %15, align 4
  br label %121

121:                                              ; preds = %119, %120
  call void @llvm.lifetime.end.p0(i64 4, ptr %13) #10
  call void @llvm.lifetime.end.p0(i64 8, ptr %12) #10
  %122 = load i32, ptr %15, align 4
  switch i32 %122, label %132 [
    i32 0, label %123
    i32 2, label %124
  ]

123:                                              ; preds = %121
  br label %124

124:                                              ; preds = %123, %121, %56
  %125 = load ptr, ptr %9, align 8, !tbaa !14
  call void @free(ptr noundef %125) #10
  %126 = load ptr, ptr %3, align 8, !tbaa !67
  %127 = getelementptr inbounds nuw %struct.FASTCOVER_tryParameters_data_s, ptr %126, i32 0, i32 1
  %128 = load ptr, ptr %127, align 8, !tbaa !72
  call void @COVER_best_finish(ptr noundef %128, ptr noundef byval(%struct.ZDICT_cover_params_t) align 8 %5, ptr noundef byval(%struct.COVER_dictSelection) align 8 %10)
  %129 = load ptr, ptr %3, align 8, !tbaa !67
  call void @free(ptr noundef %129) #10
  %130 = load ptr, ptr %8, align 8, !tbaa !32
  call void @free(ptr noundef %130) #10
  call void @COVER_dictSelectionFree(ptr noundef byval(%struct.COVER_dictSelection) align 8 %10)
  %131 = load ptr, ptr %11, align 8, !tbaa !58
  call void @free(ptr noundef %131) #10
  call void @llvm.lifetime.end.p0(i64 8, ptr %11) #10
  call void @llvm.lifetime.end.p0(i64 24, ptr %10) #10
  call void @llvm.lifetime.end.p0(i64 8, ptr %9) #10
  call void @llvm.lifetime.end.p0(i64 8, ptr %8) #10
  call void @llvm.lifetime.end.p0(i64 8, ptr %7) #10
  call void @llvm.lifetime.end.p0(i64 8, ptr %6) #10
  call void @llvm.lifetime.end.p0(i64 48, ptr %5) #10
  call void @llvm.lifetime.end.p0(i64 8, ptr %4) #10
  call void @llvm.lifetime.end.p0(i64 8, ptr %3) #10
  ret void

132:                                              ; preds = %121
  unreachable
}