; Function Attrs: nounwind uwtable
define internal void @FASTCOVER_tryParameters(ptr noundef captures(none) %0) #0 {
  %2 = alloca %struct.ZDICT_cover_params_t, align 8
  %3 = alloca %struct.COVER_dictSelection, align 8
  %4 = alloca %struct.COVER_dictSelection, align 8
  %5 = load ptr, ptr %0, align 8, !tbaa !58
  call void @llvm.lifetime.start.p0(i64 48, ptr nonnull %2) #12
  %6 = getelementptr inbounds nuw i8, ptr %0, i64 24
  call void @llvm.memcpy.p0.p0.i64(ptr noundef nonnull align 8 dereferenceable(48) %2, ptr noundef nonnull align 8 dereferenceable(48) %6, i64 48, i1 false), !tbaa.struct !77
  %7 = getelementptr inbounds nuw i8, ptr %0, i64 16
  %8 = load i64, ptr %7, align 8, !tbaa !62
  %9 = getelementptr inbounds nuw i8, ptr %5, i64 68
  %10 = load i32, ptr %9, align 4, !tbaa !40
  %11 = zext nneg i32 %10 to i64
  %12 = shl nuw i64 1, %11
  %13 = tail call noalias ptr @calloc(i64 noundef %12, i64 noundef 2) #15
  %14 = tail call noalias ptr @malloc(i64 noundef %8) #16
  call void @llvm.lifetime.start.p0(i64 24, ptr nonnull %3) #12
  call void @COVER_dictSelectionError(ptr dead_on_unwind nonnull writable sret(%struct.COVER_dictSelection) align 8 %3, i64 noundef -1) #12
  %15 = load i32, ptr %9, align 4, !tbaa !40
  %16 = zext nneg i32 %15 to i64
  %17 = shl i64 4, %16
  %18 = call noalias ptr @malloc(i64 noundef %17) #16
  %19 = icmp ne ptr %13, null
  %20 = icmp ne ptr %14, null
  %or.cond = and i1 %19, %20
  %21 = icmp ne ptr %18, null
  %or.cond3 = and i1 %or.cond, %21
  br i1 %or.cond3, label %28, label %22

22:                                               ; preds = %1
  %23 = load i32, ptr @g_displayLevel, align 4, !tbaa !11
  %24 = icmp sgt i32 %23, 0
  br i1 %24, label %25, label %58

25:                                               ; preds = %22
  %26 = load ptr, ptr @stderr, align 8, !tbaa !21
  %27 = call i64 @fwrite(ptr nonnull @.str.25, i64 42, i64 1, ptr %26) #13
  br label %.sink.split

28:                                               ; preds = %1
  %29 = getelementptr inbounds nuw i8, ptr %5, i64 56
  %30 = load ptr, ptr %29, align 8, !tbaa !31
  call void @llvm.memcpy.p0.p0.i64(ptr nonnull align 4 %18, ptr align 4 %30, i64 %17, i1 false)
  %.val = load i32, ptr %2, align 8, !tbaa !14
  %31 = getelementptr inbounds nuw i8, ptr %2, i64 4
  %.val43 = load i32, ptr %31, align 4
  %32 = call fastcc i64 @FASTCOVER_buildDictionary(ptr noundef nonnull %5, ptr noundef nonnull %18, ptr noundef nonnull %14, i64 noundef %8, i32 %.val, i32 %.val43, ptr noundef nonnull %13)
  %33 = getelementptr inbounds nuw i8, ptr %5, i64 32
  %34 = load i64, ptr %33, align 8, !tbaa !32
  %35 = getelementptr inbounds nuw i8, ptr %5, i64 72
  %36 = load i32, ptr %35, align 8, !tbaa !33
  %37 = zext i32 %36 to i64
  %38 = mul i64 %34, %37
  %39 = udiv i64 %38, 100
  %40 = trunc i64 %39 to i32
  call void @llvm.lifetime.start.p0(i64 24, ptr nonnull %4) #12
  %41 = getelementptr inbounds nuw i8, ptr %14, i64 %32
  %42 = sub i64 %8, %32
  %43 = load ptr, ptr %5, align 8, !tbaa !35
  %44 = getelementptr inbounds nuw i8, ptr %5, i64 16
  %45 = load ptr, ptr %44, align 8, !tbaa !36
  %46 = getelementptr inbounds nuw i8, ptr %5, i64 24
  %47 = load i64, ptr %46, align 8, !tbaa !37
  %48 = getelementptr inbounds nuw i8, ptr %5, i64 8
  %49 = load ptr, ptr %48, align 8, !tbaa !34
  call void @COVER_selectDict(ptr dead_on_unwind nonnull writable sret(%struct.COVER_dictSelection) align 8 %4, ptr noundef nonnull %41, i64 noundef %8, i64 noundef %42, ptr noundef %43, ptr noundef %45, i32 noundef %40, i64 noundef %34, i64 noundef %47, ptr noundef nonnull byval(%struct.ZDICT_cover_params_t) align 8 %2, ptr noundef %49, i64 noundef -1) #12
  call void @llvm.memcpy.p0.p0.i64(ptr noundef nonnull align 8 dereferenceable(24) %3, ptr noundef nonnull align 8 dereferenceable(24) %4, i64 24, i1 false), !tbaa.struct !79
  call void @llvm.lifetime.end.p0(i64 24, ptr nonnull %4) #12
  %50 = call i32 @COVER_dictSelectionIsError(ptr noundef nonnull byval(%struct.COVER_dictSelection) align 8 %3) #12
  %.not = icmp ne i32 %50, 0
  %51 = load i32, ptr @g_displayLevel, align 4
  %52 = icmp sgt i32 %51, 0
  %or.cond42 = select i1 %.not, i1 %52, i1 false
  br i1 %or.cond42, label %53, label %58

53:                                               ; preds = %28
  %54 = load ptr, ptr @stderr, align 8, !tbaa !21
  %55 = call i64 @fwrite(ptr nonnull @.str.26, i64 28, i64 1, ptr %54) #13
  br label %.sink.split

.sink.split:                                      ; preds = %25, %53
  %56 = load ptr, ptr @stderr, align 8, !tbaa !21
  %57 = call i32 @fflush(ptr noundef %56)
  br label %58

58:                                               ; preds = %.sink.split, %28, %22
  call void @free(ptr noundef %14) #12
  %59 = getelementptr inbounds nuw i8, ptr %0, i64 8
  %60 = load ptr, ptr %59, align 8, !tbaa !61
  call void @COVER_best_finish(ptr noundef %60, ptr noundef nonnull byval(%struct.ZDICT_cover_params_t) align 8 %2, ptr noundef nonnull byval(%struct.COVER_dictSelection) align 8 %3) #12
  call void @free(ptr noundef nonnull %0) #12
  call void @free(ptr noundef %13) #12
  call void @COVER_dictSelectionFree(ptr noundef nonnull byval(%struct.COVER_dictSelection) align 8 %3) #12
  call void @free(ptr noundef %18) #12
  call void @llvm.lifetime.end.p0(i64 24, ptr nonnull %3) #12
  call void @llvm.lifetime.end.p0(i64 48, ptr nonnull %2) #12
  ret void
}